; Function Attrs: null_pointer_is_valid sspstrong uwtable
define internal range(i32 0, 2) i32 @attr_find_pred(ptr noundef %0, ptr readnone captures(none) %1, ptr noundef readonly captures(none) %2) #0 {
  %4 = tail call i32 @strcmp(ptr noundef %2, ptr noundef nonnull dereferenceable(6) @.str.4) #11
  %5 = icmp eq i32 %4, 0
  br i1 %5, label %6, label %9

6:                                                ; preds = %3
  %7 = tail call ptr @ws_ascii_strcasestr(ptr noundef %0, ptr noundef nonnull @.str.29)
  %.not = icmp ne ptr %7, null
  %8 = icmp eq ptr %7, %0
  %or.cond = and i1 %.not, %8
  %.0 = zext i1 %or.cond to i32
  br label %9

9:                                                ; preds = %3, %6
  %.1 = phi i32 [ %.0, %6 ], [ 0, %3 ]
  ret i32 %.1
}